; Function Attrs: mustprogress nofree norecurse nosync nounwind willreturn memory(argmem: read) uwtable
define ptr @tng_compress_initial_vel_algo(ptr noundef readonly captures(none) %0) local_unnamed_addr #7 {
  %2 = load i32, ptr %0, align 4, !tbaa !3
  %spec.store.select = tail call i32 @llvm.smax.i32(i32 %2, i32 0)
  %3 = icmp sgt i32 %2, 10
  %spec.store.select1 = select i1 %3, i32 0, i32 %spec.store.select
  %4 = zext nneg i32 %spec.store.select1 to i64
  %5 = getelementptr inbounds nuw [11 x ptr], ptr @compress_algo_vel, i64 0, i64 %4
  %6 = load ptr, ptr %5, align 8, !tbaa !43
  ret ptr %6
}